; Function Attrs: null_pointer_is_valid sspstrong uwtable
define internal i32 @dissect_pfcp_nokia_group_if_template(ptr noundef %0, ptr noundef readonly captures(none) %1, ptr noundef %2, ptr readnone captures(none) %3) #0 {
  %5 = alloca ptr, align 8
  %6 = load i32, ptr @hf_pfcp_nokia_group_iface_template, align 4
  %7 = getelementptr i8, ptr %1, i64 408
  %.val = load ptr, ptr %7, align 8
  call void @llvm.lifetime.start.p0(i64 8, ptr nonnull %5) #15
  store ptr null, ptr %5, align 8
  %8 = call ptr @proto_tree_add_item_ret_display_string(ptr noundef %2, i32 noundef %6, ptr noundef %0, i32 noundef 0, i32 noundef -1, i32 noundef 0, ptr noundef %.val, ptr noundef nonnull %5)
  %9 = call ptr @proto_tree_get_parent(ptr noundef %2)
  %10 = load ptr, ptr %5, align 8
  call void (ptr, ptr, ...) @proto_item_append_text(ptr noundef %9, ptr noundef nonnull @.str.2719, ptr noundef %10)
  %11 = call i32 @tvb_reported_length(ptr noundef %0)
  call void @llvm.lifetime.end.p0(i64 8, ptr nonnull %5) #15
  ret i32 %11
}